target datalayout = "e-m:e-p270:32:32-p271:32:32-p272:64:64-i64:64-i128:128-f80:128-n8:16:32:64-S128"
target triple = "x86_64-unknown-linux-gnu"

%"class.std::shared_ptr" = type { %"class.std::__shared_ptr" }
%"class.std::__shared_ptr" = type { ptr, %"class.std::__shared_count" }
%"class.std::__shared_count" = type { ptr }
%"class.hermes::hbc::RuntimeFunctionHeader" = type { ptr }
%"class.hermes::hbc::BytecodeVisitor" = type <{ ptr, %"class.std::shared_ptr", i32, [4 x i8] }>
%"class.hermes::hbc::BytecodeVisitor.base" = type <{ ptr, %"class.std::shared_ptr", i32 }>
%"class.hermes::hbc::PrettyDisassembleVisitor" = type <{ %"class.hermes::hbc::BytecodeVisitor.base", i8, [3 x i8], ptr, ptr, i32, [4 x i8], ptr, i32, [4 x i8] }>

; Function Attrs: mustprogress nounwind uwtable
define linkonce_odr hidden noundef ptr @_ZNKSt12__shared_ptrIN6hermes3hbc14BCProviderBaseELN9__gnu_cxx12_Lock_policyE2EE3getEv(ptr noundef nonnull align 8 dereferenceable(16) %this) #0 comdat align 2 {
entry:
  %this.addr = alloca ptr, align 8
  store ptr %this, ptr %this.addr, align 8
  %this1 = load ptr, ptr %this.addr, align 8
  %_M_ptr = getelementptr inbounds %"class.std::__shared_ptr", ptr %this1, i32 0, i32 0
  %0 = load ptr, ptr %_M_ptr, align 8
  ret ptr %0
}

; Function Attrs: mustprogress nounwind uwtable
define linkonce_odr hidden noundef ptr @_ZNKSt19__shared_ptr_accessIN6hermes3hbc14BCProviderBaseELN9__gnu_cxx12_Lock_policyE2ELb0ELb0EE6_M_getEv(ptr noundef nonnull align 1 dereferenceable(1) %this) #0 comdat align 2 {
entry:
  %this.addr = alloca ptr, align 8
  store ptr %this, ptr %this.addr, align 8
  %this1 = load ptr, ptr %this.addr, align 8
  %call = call noundef ptr @_ZNKSt12__shared_ptrIN6hermes3hbc14BCProviderBaseELN9__gnu_cxx12_Lock_policyE2EE3getEv(ptr noundef nonnull align 8 dereferenceable(16) %this1) #11
  ret ptr %call
}

; Function Attrs: mustprogress nounwind uwtable
define linkonce_odr hidden noundef nonnull align 8 dereferenceable(280) ptr @_ZNKSt19__shared_ptr_accessIN6hermes3hbc14BCProviderBaseELN9__gnu_cxx12_Lock_policyE2ELb0ELb0EEdeEv(ptr noundef nonnull align 1 dereferenceable(1) %this) #0 comdat align 2 {
entry:
  %this.addr = alloca ptr, align 8
  store ptr %this, ptr %this.addr, align 8
  %this1 = load ptr, ptr %this.addr, align 8
  br label %do.body

do.body:                                          ; preds = %entry
  br label %do.end

do.end:                                           ; preds = %do.body
  %call = call noundef ptr @_ZNKSt19__shared_ptr_accessIN6hermes3hbc14BCProviderBaseELN9__gnu_cxx12_Lock_policyE2ELb0ELb0EE6_M_getEv(ptr noundef nonnull align 1 dereferenceable(1) %this1) #11
  ret ptr %call
}

; Function Attrs: mustprogress nounwind uwtable
define linkonce_odr hidden noundef ptr @_ZNKSt19__shared_ptr_accessIN6hermes3hbc14BCProviderBaseELN9__gnu_cxx12_Lock_policyE2ELb0ELb0EEptEv(ptr noundef nonnull align 1 dereferenceable(1) %this) #0 comdat align 2 {
entry:
  %this.addr = alloca ptr, align 8
  store ptr %this, ptr %this.addr, align 8
  %this1 = load ptr, ptr %this.addr, align 8
  %call = call noundef ptr @_ZNKSt19__shared_ptr_accessIN6hermes3hbc14BCProviderBaseELN9__gnu_cxx12_Lock_policyE2ELb0ELb0EE6_M_getEv(ptr noundef nonnull align 1 dereferenceable(1) %this1) #11
  ret ptr %call
}

; Function Attrs: mustprogress nounwind uwtable
define hidden void @_ZN6hermes3hbc24PrettyDisassembleVisitor19dumpOperandFunctionEjRN4llvh11raw_ostreamE(ptr noundef nonnull align 8 dereferenceable(68) %this, i32 noundef %functionID, ptr noundef nonnull align 8 dereferenceable(36) %OS) #0 align 2 {
entry:
  %this.addr = alloca ptr, align 8
  %functionID.addr = alloca i32, align 4
  %OS.addr = alloca ptr, align 8
  %functionHeader = alloca %"class.hermes::hbc::RuntimeFunctionHeader", align 8
  store ptr %this, ptr %this.addr, align 8
  store i32 %functionID, ptr %functionID.addr, align 4
  store ptr %OS, ptr %OS.addr, align 8
  %this1 = load ptr, ptr %this.addr, align 8
  %bcProvider_ = getelementptr inbounds %"class.hermes::hbc::BytecodeVisitor", ptr %this1, i32 0, i32 1
  %call = call noundef ptr @_ZNKSt19__shared_ptr_accessIN6hermes3hbc14BCProviderBaseELN9__gnu_cxx12_Lock_policyE2ELb0ELb0EEptEv(ptr noundef nonnull align 1 dereferenceable(1) %bcProvider_) #11
  %0 = load i32, ptr %functionID.addr, align 4
  %vtable = load ptr, ptr %call, align 8
  %vfn = getelementptr inbounds ptr, ptr %vtable, i64 4
  %1 = load ptr, ptr %vfn, align 8
  %call2 = call ptr %1(ptr noundef nonnull align 8 dereferenceable(280) %call, i32 noundef %0)
  %coerce.dive = getelementptr inbounds %"class.hermes::hbc::RuntimeFunctionHeader", ptr %functionHeader, i32 0, i32 0
  store ptr %call2, ptr %coerce.dive, align 8
  %2 = load ptr, ptr %OS.addr, align 8
  %bcProvider_3 = getelementptr inbounds %"class.hermes::hbc::BytecodeVisitor", ptr %this1, i32 0, i32 1
  %call4 = call noundef nonnull align 8 dereferenceable(280) ptr @_ZNKSt19__shared_ptr_accessIN6hermes3hbc14BCProviderBaseELN9__gnu_cxx12_Lock_policyE2ELb0ELb0EEdeEv(ptr noundef nonnull align 1 dereferenceable(1) %bcProvider_3) #11
  %3 = load i32, ptr %functionID.addr, align 4
  %options_ = getelementptr inbounds %"class.hermes::hbc::PrettyDisassembleVisitor", ptr %this1, i32 0, i32 8
  %4 = load i32, ptr %options_, align 8
  call void @_ZN6hermes3hbcL16dumpFunctionNameERN4llvh11raw_ostreamERNS0_14BCProviderBaseEjRKNS0_21RuntimeFunctionHeaderENS0_18DisassemblyOptionsE(ptr noundef nonnull align 8 dereferenceable(36) %2, ptr noundef nonnull align 8 dereferenceable(280) %call4, i32 noundef %3, ptr noundef nonnull align 8 dereferenceable(8) %functionHeader, i32 noundef %4)
  ret void
}