; Function Attrs: mustprogress nounwind uwtable
define hidden void @_ZN6hermes3hbc24PrettyDisassembleVisitor19dumpOperandFunctionEjRN4llvh11raw_ostreamE(ptr nocapture noundef nonnull readonly align 8 dereferenceable(68) %this, i32 noundef %functionID, ptr noundef nonnull align 8 dereferenceable(36) %OS) local_unnamed_addr #1 align 2 {
entry:
  %functionHeader = alloca %"class.hermes::hbc::RuntimeFunctionHeader", align 8
  %bcProvider_ = getelementptr inbounds i8, ptr %this, i64 8
  %0 = load ptr, ptr %bcProvider_, align 8
  %vtable = load ptr, ptr %0, align 8
  %vfn = getelementptr inbounds i8, ptr %vtable, i64 32
  %1 = load ptr, ptr %vfn, align 8
  %call2 = tail call ptr %1(ptr noundef nonnull align 8 dereferenceable(280) %0, i32 noundef %functionID) #17
  store ptr %call2, ptr %functionHeader, align 8
  %2 = load ptr, ptr %bcProvider_, align 8
  %options_ = getelementptr inbounds i8, ptr %this, i64 64
  %3 = load i32, ptr %options_, align 8
  call fastcc void @_ZN6hermes3hbcL16dumpFunctionNameERN4llvh11raw_ostreamERNS0_14BCProviderBaseEjRKNS0_21RuntimeFunctionHeaderENS0_18DisassemblyOptionsE(ptr noundef nonnull align 8 dereferenceable(36) %OS, ptr noundef nonnull align 8 dereferenceable(280) %2, i32 noundef %functionID, ptr noundef nonnull align 8 dereferenceable(8) %functionHeader, i32 noundef %3)
  ret void
}